; Function Attrs: nounwind uwtable
define hidden range(i32 -1, 1) i32 @output_nativesvg(ptr noundef %0, ptr noundef %1) local_unnamed_addr #0 {
  %3 = getelementptr inbounds nuw i8, ptr %0, i64 32
  %4 = load i32, ptr %3, align 8, !tbaa !4
  %5 = tail call noalias ptr @open_output(ptr noundef %1, i32 noundef %4) #9
  %.not = icmp eq ptr %5, null
  br i1 %.not, label %6, label %12

6:                                                ; preds = %2
  %7 = load ptr, ptr @stderr, align 8, !tbaa !20
  %8 = tail call ptr @__errno_location() #10
  %9 = load i32, ptr %8, align 4, !tbaa !21
  %10 = tail call ptr @strerror(i32 noundef %9) #9
  %11 = tail call i32 (ptr, ptr, ...) @fprintf(ptr noundef %7, ptr noundef nonnull @.str, ptr noundef %1, ptr noundef %10) #11
  br label %30

12:                                               ; preds = %2
  %13 = getelementptr inbounds nuw i8, ptr %0, i64 24
  store ptr %5, ptr %13, align 8, !tbaa !22
  %14 = getelementptr inbounds nuw i8, ptr %0, i64 1600
  store ptr @native_svg_draw_methods, ptr %14, align 8, !tbaa !23
  %15 = getelementptr inbounds nuw i8, ptr %0, i64 1592
  %16 = load i64, ptr %15, align 8, !tbaa !24
  %17 = or i64 %16, 2
  store i64 %17, ptr %15, align 8, !tbaa !24
  %18 = getelementptr inbounds nuw i8, ptr %0, i64 1608
  store i32 0, ptr %18, align 8, !tbaa !25
  tail call void @output_draw(ptr noundef nonnull %0) #9
  store i32 1, ptr %18, align 8, !tbaa !25
  %19 = tail call i64 @fwrite(ptr nonnull @.str.1, i64 39, i64 1, ptr nonnull %5)
  %20 = getelementptr inbounds nuw i8, ptr %0, i64 1612
  %21 = load i32, ptr %20, align 4, !tbaa !26
  %22 = getelementptr inbounds nuw i8, ptr %0, i64 1616
  %23 = load i32, ptr %22, align 8, !tbaa !27
  %24 = tail call i32 (ptr, ptr, ...) @fprintf(ptr noundef nonnull %5, ptr noundef nonnull @.str.2, i32 noundef %21, i32 noundef %23, i32 noundef %21, i32 noundef %23) #9
  tail call void @declare_colors(ptr noundef nonnull %0) #9
  tail call void @lstopo_prepare_custom_styles(ptr noundef nonnull %0) #9
  tail call void @output_draw(ptr noundef nonnull %0) #9
  %25 = tail call i64 @fwrite(ptr nonnull @.str.3, i64 7, i64 1, ptr nonnull %5)
  %26 = load ptr, ptr @stdout, align 8, !tbaa !20
  %.not25 = icmp eq ptr %5, %26
  br i1 %.not25, label %29, label %27

27:                                               ; preds = %12
  %28 = tail call i32 @fclose(ptr noundef nonnull %5)
  br label %29

29:                                               ; preds = %27, %12
  tail call void @destroy_colors(ptr noundef nonnull %0) #9
  br label %30

30:                                               ; preds = %29, %6
  %.0 = phi i32 [ 0, %29 ], [ -1, %6 ]
  ret i32 %.0
}